target datalayout = "e-m:e-p270:32:32-p271:32:32-p272:64:64-i64:64-i128:128-f80:128-n8:16:32:64-S128"
target triple = "x86_64-pc-linux-gnu"

%struct.anon = type { i8 }
%union.anon = type { %struct.anon.2 }
%struct.anon.2 = type { i8, i8, ptr, ptr }
%struct.Type_ = type { i32, ptr, ptr, ptr, %union.anon.85, ptr, ptr, %union.anon.87 }
%union.anon.85 = type { ptr }
%union.anon.87 = type { %struct.TypeFunction }
%struct.TypeFunction = type { ptr, ptr, ptr }
%struct.ABIArgInfo_ = type { i32, i8, %struct.anon, %union.anon }

; Function Attrs: nounwind uwtable
define internal ptr @abi_arg_new(i32 noundef %0) #0 {
  %2 = alloca i32, align 4
  %3 = alloca ptr, align 8
  store i32 %0, ptr %2, align 4
  %4 = call ptr @calloc_arena(i64 noundef 32)
  store ptr %4, ptr %3, align 8
  %5 = load i32, ptr %2, align 4
  %6 = load ptr, ptr %3, align 8
  %7 = getelementptr inbounds %struct.ABIArgInfo_, ptr %6, i32 0, i32 1
  %8 = trunc i32 %5 to i8
  %9 = load i8, ptr %7, align 4
  %10 = and i8 %8, 63
  %11 = and i8 %9, -64
  %12 = or i8 %11, %10
  store i8 %12, ptr %7, align 4
  %13 = load ptr, ptr %3, align 8
  ret ptr %13
}

; Function Attrs: nounwind uwtable
define dso_local ptr @abi_arg_new_direct_int_ext_by_reg(ptr noundef %0, i1 noundef zeroext %1) #0 {
  %3 = alloca i1, align 1
  %4 = alloca ptr, align 8
  %5 = alloca i32, align 4
  %6 = alloca ptr, align 8
  %7 = alloca i8, align 1
  %8 = alloca ptr, align 8
  store ptr %0, ptr %6, align 8
  %9 = zext i1 %1 to i8
  store i8 %9, ptr %7, align 1
  %10 = call ptr @abi_arg_new(i32 noundef 1)
  store ptr %10, ptr %8, align 8
  %11 = load ptr, ptr %6, align 8
  store ptr %11, ptr %4, align 8
  %12 = load ptr, ptr %4, align 8
  %13 = load i32, ptr %12, align 8
  store i32 %13, ptr %5, align 4
  %14 = load i32, ptr %5, align 4
  %15 = icmp uge i32 %14, 3
  br i1 %15, label %16, label %20

16:                                               ; preds = %2
  %17 = load i32, ptr %5, align 4
  %18 = icmp ult i32 %17, 8
  br i1 %18, label %19, label %20

19:                                               ; preds = %16
  store i1 true, ptr %3, align 1
  br label %36

20:                                               ; preds = %16, %2
  %21 = load i32, ptr %5, align 4
  %22 = icmp ne i32 %21, 37
  br i1 %22, label %23, label %24

23:                                               ; preds = %20
  store i1 false, ptr %3, align 1
  br label %36

24:                                               ; preds = %20
  %25 = load ptr, ptr %4, align 8
  %26 = getelementptr inbounds %struct.Type_, ptr %25, i32 0, i32 7
  %27 = load ptr, ptr %26, align 8
  %28 = load i32, ptr %27, align 8
  store i32 %28, ptr %5, align 4
  %29 = load i32, ptr %5, align 4
  %30 = icmp uge i32 %29, 3
  br i1 %30, label %31, label %34

31:                                               ; preds = %24
  %32 = load i32, ptr %5, align 4
  %33 = icmp ult i32 %32, 8
  br label %34

34:                                               ; preds = %31, %24
  %35 = phi i1 [ false, %24 ], [ %33, %31 ]
  store i1 %35, ptr %3, align 1
  br label %36

36:                                               ; preds = %34, %23, %19
  %37 = load i1, ptr %3, align 1
  br i1 %37, label %38, label %44

38:                                               ; preds = %36
  %39 = load ptr, ptr %8, align 8
  %40 = getelementptr inbounds %struct.ABIArgInfo_, ptr %39, i32 0, i32 2
  %41 = load i8, ptr %40, align 1
  %42 = and i8 %41, -5
  %43 = or i8 %42, 4
  store i8 %43, ptr %40, align 1
  br label %50

44:                                               ; preds = %36
  %45 = load ptr, ptr %8, align 8
  %46 = getelementptr inbounds %struct.ABIArgInfo_, ptr %45, i32 0, i32 2
  %47 = load i8, ptr %46, align 1
  %48 = and i8 %47, -3
  %49 = or i8 %48, 2
  store i8 %49, ptr %46, align 1
  br label %50

50:                                               ; preds = %44, %38
  %51 = load i8, ptr %7, align 1
  %52 = trunc i8 %51 to i1
  %53 = load ptr, ptr %8, align 8
  %54 = getelementptr inbounds %struct.ABIArgInfo_, ptr %53, i32 0, i32 2
  %55 = zext i1 %52 to i8
  %56 = load i8, ptr %54, align 1
  %57 = and i8 %56, -2
  %58 = or i8 %57, %55
  store i8 %58, ptr %54, align 1
  %59 = load ptr, ptr %8, align 8
  ret ptr %59
}

; Function Attrs: nounwind uwtable
define dso_local ptr @abi_arg_new_direct_int_ext(ptr noundef %0) #0 {
  %2 = alloca ptr, align 8
  store ptr %0, ptr %2, align 8
  %3 = load ptr, ptr %2, align 8
  %4 = call ptr @abi_arg_new_direct_int_ext_by_reg(ptr noundef %3, i1 noundef zeroext false)
  ret ptr %4
}