; Function Attrs: nounwind uwtable
define dso_local ptr @abi_arg_new_direct_int_ext(ptr nocapture noundef readonly %0) local_unnamed_addr #2 {
  %2 = tail call ptr @calloc_arena(i64 noundef 32) #5
  %3 = getelementptr inbounds i8, ptr %2, i64 4
  %4 = load i8, ptr %3, align 4
  %5 = and i8 %4, -64
  %6 = or disjoint i8 %5, 1
  store i8 %6, ptr %3, align 4
  %7 = load i32, ptr %0, align 8
  %8 = add i32 %7, -3
  %or.cond.i = icmp ult i32 %8, 5
  br i1 %or.cond.i, label %abi_arg_new_direct_int_ext_by_reg.exit, label %9

9:                                                ; preds = %1
  %.not.i = icmp eq i32 %7, 37
  br i1 %.not.i, label %10, label %.critedge15.i

10:                                               ; preds = %9
  %11 = getelementptr inbounds i8, ptr %0, i64 56
  %12 = load ptr, ptr %11, align 8
  %13 = load i32, ptr %12, align 8
  %14 = add i32 %13, -3
  %15 = icmp ult i32 %14, 5
  br i1 %15, label %abi_arg_new_direct_int_ext_by_reg.exit, label %.critedge15.i

.critedge15.i:                                    ; preds = %10, %9
  br label %abi_arg_new_direct_int_ext_by_reg.exit

abi_arg_new_direct_int_ext_by_reg.exit:           ; preds = %1, %10, %.critedge15.i
  %.sink16.i = phi i8 [ 2, %.critedge15.i ], [ 4, %1 ], [ 4, %10 ]
  %16 = getelementptr inbounds i8, ptr %2, i64 5
  %17 = load i8, ptr %16, align 1
  %.masked.i = and i8 %17, -2
  %18 = or i8 %.masked.i, %.sink16.i
  store i8 %18, ptr %16, align 1
  ret ptr %2
}